; Function Attrs: mustprogress uwtable
define void @_ZNK8QuantLib18ZeroInflationIndex5cloneERKNS_6HandleINS_26ZeroInflationTermStructureEEE(ptr dead_on_unwind noalias writable sret(%"class.boost::shared_ptr.20") align 8 %agg.result, ptr noundef nonnull align 8 dereferenceable(248) %this, ptr noundef nonnull align 8 dereferenceable(16) %h) local_unnamed_addr #6 align 2 {
entry:
  %familyName_ = getelementptr inbounds nuw i8, ptr %this, i64 120
  %region_ = getelementptr inbounds nuw i8, ptr %this, i64 152
  %revised_ = getelementptr inbounds nuw i8, ptr %this, i64 168
  %frequency_ = getelementptr inbounds nuw i8, ptr %this, i64 172
  %availabilityLag_ = getelementptr inbounds nuw i8, ptr %this, i64 176
  %currency_ = getelementptr inbounds nuw i8, ptr %this, i64 184
  tail call void @_ZN5boost11make_sharedIN8QuantLib18ZeroInflationIndexEJRKNSt7__cxx1112basic_stringIcSt11char_traitsIcESaIcEEERKNS1_6RegionERKbRKNS1_9FrequencyERKNS1_6PeriodERKNS1_8CurrencyERKNS1_6HandleINS1_26ZeroInflationTermStructureEEEEEENS_6detail15sp_if_not_arrayIT_E4typeEDpOT0_(ptr dead_on_unwind writable sret(%"class.boost::shared_ptr.20") align 8 %agg.result, ptr noundef nonnull align 8 dereferenceable(32) %familyName_, ptr noundef nonnull align 8 dereferenceable(16) %region_, ptr noundef nonnull align 1 dereferenceable(1) %revised_, ptr noundef nonnull align 4 dereferenceable(4) %frequency_, ptr noundef nonnull align 4 dereferenceable(8) %availabilityLag_, ptr noundef nonnull align 8 dereferenceable(16) %currency_, ptr noundef nonnull align 8 dereferenceable(16) %h)
  ret void
}